target datalayout = "e-m:e-p270:32:32-p271:32:32-p272:64:64-i64:64-i128:128-f80:128-n8:16:32:64-S128"
target triple = "x86_64-pc-linux-gnu"

%"class.icu_77::RuleBasedTimeZone" = type <{ %"class.icu_77::BasicTimeZone", ptr, ptr, ptr, ptr, i8, [7 x i8] }>
%"class.icu_77::BasicTimeZone" = type { %"class.icu_77::TimeZone" }
%"class.icu_77::TimeZone" = type { %"class.icu_77::UObject", %"class.icu_77::UnicodeString" }
%"class.icu_77::UObject" = type { ptr }
%"class.icu_77::UnicodeString" = type { %"class.icu_77::Replaceable", %"union.icu_77::UnicodeString::StackBufferOrFields" }
%"class.icu_77::Replaceable" = type { %"class.icu_77::UObject" }
%"union.icu_77::UnicodeString::StackBufferOrFields" = type { %struct.anon.0, [32 x i8] }
%struct.anon.0 = type { i16, i32, i32, ptr }
%"class.icu_77::UVector" = type { %"class.icu_77::UObject", i32, i32, ptr, ptr, ptr }

; Function Attrs: inlinehint mustprogress nounwind uwtable
define linkonce_odr noundef i32 @_ZNK6icu_777UVector4sizeEv(ptr noundef nonnull align 8 dereferenceable(40) %0) #6 comdat align 2 {
  %2 = alloca ptr, align 8
  store ptr %0, ptr %2, align 8, !tbaa !28
  %3 = load ptr, ptr %2, align 8
  %4 = getelementptr inbounds nuw %"class.icu_77::UVector", ptr %3, i32 0, i32 1
  %5 = load i32, ptr %4, align 8, !tbaa !69
  ret i32 %5
}

; Function Attrs: inlinehint mustprogress nounwind uwtable
define internal noundef signext i8 @_ZL9U_FAILURE10UErrorCode(i32 noundef %0) #6 {
  %2 = alloca i32, align 4
  store i32 %0, ptr %2, align 4, !tbaa !26
  %3 = load i32, ptr %2, align 4, !tbaa !26
  %4 = icmp sgt i32 %3, 0
  %5 = zext i1 %4 to i8
  ret i8 %5
}

; Function Attrs: mustprogress uwtable
define void @_ZNK6icu_7717RuleBasedTimeZone16getTimeZoneRulesERPKNS_19InitialTimeZoneRuleEPPKNS_12TimeZoneRuleERiR10UErrorCode(ptr noundef nonnull align 8 dereferenceable(105) %0, ptr noundef nonnull align 8 dereferenceable(8) %1, ptr noundef %2, ptr noundef nonnull align 4 dereferenceable(4) %3, ptr noundef nonnull align 4 dereferenceable(4) %4) unnamed_addr #1 align 2 {
  %6 = alloca ptr, align 8
  %7 = alloca ptr, align 8
  %8 = alloca ptr, align 8
  %9 = alloca ptr, align 8
  %10 = alloca ptr, align 8
  %11 = alloca i32, align 4
  %12 = alloca i32, align 4
  %13 = alloca i32, align 4
  %14 = alloca i32, align 4
  store ptr %0, ptr %6, align 8, !tbaa !3
  store ptr %1, ptr %7, align 8, !tbaa !108
  store ptr %2, ptr %8, align 8, !tbaa !101
  store ptr %3, ptr %9, align 8, !tbaa !94
  store ptr %4, ptr %10, align 8, !tbaa !33
  %15 = load ptr, ptr %6, align 8
  %16 = load ptr, ptr %10, align 8, !tbaa !33
  %17 = load i32, ptr %16, align 4, !tbaa !26
  %18 = call noundef signext i8 @_ZL9U_FAILURE10UErrorCode(i32 noundef %17)
  %19 = icmp ne i8 %18, 0
  br i1 %19, label %20, label %21

20:                                               ; preds = %5
  br label %99

21:                                               ; preds = %5
  %22 = getelementptr inbounds nuw %"class.icu_77::RuleBasedTimeZone", ptr %15, i32 0, i32 1
  %23 = load ptr, ptr %22, align 8, !tbaa !14
  %24 = load ptr, ptr %7, align 8, !tbaa !108
  store ptr %23, ptr %24, align 8, !tbaa !10
  call void @llvm.lifetime.start.p0(i64 4, ptr %11) #12
  store i32 0, ptr %11, align 4, !tbaa !29
  call void @llvm.lifetime.start.p0(i64 4, ptr %12) #12
  %25 = getelementptr inbounds nuw %"class.icu_77::RuleBasedTimeZone", ptr %15, i32 0, i32 2
  %26 = load ptr, ptr %25, align 8, !tbaa !22
  %27 = icmp ne ptr %26, null
  br i1 %27, label %28, label %60

28:                                               ; preds = %21
  %29 = load i32, ptr %11, align 4, !tbaa !29
  %30 = load ptr, ptr %9, align 8, !tbaa !94
  %31 = load i32, ptr %30, align 4, !tbaa !29
  %32 = icmp slt i32 %29, %31
  br i1 %32, label %33, label %60

33:                                               ; preds = %28
  call void @llvm.lifetime.start.p0(i64 4, ptr %13) #12
  %34 = getelementptr inbounds nuw %"class.icu_77::RuleBasedTimeZone", ptr %15, i32 0, i32 2
  %35 = load ptr, ptr %34, align 8, !tbaa !22
  %36 = call noundef i32 @_ZNK6icu_777UVector4sizeEv(ptr noundef nonnull align 8 dereferenceable(40) %35)
  store i32 %36, ptr %13, align 4, !tbaa !29
  store i32 0, ptr %12, align 4, !tbaa !29
  br label %37

37:                                               ; preds = %48, %33
  %38 = load i32, ptr %11, align 4, !tbaa !29
  %39 = load ptr, ptr %9, align 8, !tbaa !94
  %40 = load i32, ptr %39, align 4, !tbaa !29
  %41 = icmp slt i32 %38, %40
  br i1 %41, label %42, label %46

42:                                               ; preds = %37
  %43 = load i32, ptr %12, align 4, !tbaa !29
  %44 = load i32, ptr %13, align 4, !tbaa !29
  %45 = icmp slt i32 %43, %44
  br label %46

46:                                               ; preds = %42, %37
  %47 = phi i1 [ false, %37 ], [ %45, %42 ]
  br i1 %47, label %48, label %59

48:                                               ; preds = %46
  %49 = getelementptr inbounds nuw %"class.icu_77::RuleBasedTimeZone", ptr %15, i32 0, i32 2
  %50 = load ptr, ptr %49, align 8, !tbaa !22
  %51 = load i32, ptr %12, align 4, !tbaa !29
  %52 = add nsw i32 %51, 1
  store i32 %52, ptr %12, align 4, !tbaa !29
  %53 = call noundef ptr @_ZNK6icu_777UVector9elementAtEi(ptr noundef nonnull align 8 dereferenceable(40) %50, i32 noundef %51)
  %54 = load ptr, ptr %8, align 8, !tbaa !101
  %55 = load i32, ptr %11, align 4, !tbaa !29
  %56 = add nsw i32 %55, 1
  store i32 %56, ptr %11, align 4, !tbaa !29
  %57 = sext i32 %55 to i64
  %58 = getelementptr inbounds ptr, ptr %54, i64 %57
  store ptr %53, ptr %58, align 8, !tbaa !34
  br label %37, !llvm.loop !110

59:                                               ; preds = %46
  call void @llvm.lifetime.end.p0(i64 4, ptr %13) #12
  br label %60

60:                                               ; preds = %59, %28, %21
  %61 = getelementptr inbounds nuw %"class.icu_77::RuleBasedTimeZone", ptr %15, i32 0, i32 3
  %62 = load ptr, ptr %61, align 8, !tbaa !23
  %63 = icmp ne ptr %62, null
  br i1 %63, label %64, label %96

64:                                               ; preds = %60
  %65 = load i32, ptr %11, align 4, !tbaa !29
  %66 = load ptr, ptr %9, align 8, !tbaa !94
  %67 = load i32, ptr %66, align 4, !tbaa !29
  %68 = icmp slt i32 %65, %67
  br i1 %68, label %69, label %96

69:                                               ; preds = %64
  call void @llvm.lifetime.start.p0(i64 4, ptr %14) #12
  %70 = getelementptr inbounds nuw %"class.icu_77::RuleBasedTimeZone", ptr %15, i32 0, i32 3
  %71 = load ptr, ptr %70, align 8, !tbaa !23
  %72 = call noundef i32 @_ZNK6icu_777UVector4sizeEv(ptr noundef nonnull align 8 dereferenceable(40) %71)
  store i32 %72, ptr %14, align 4, !tbaa !29
  store i32 0, ptr %12, align 4, !tbaa !29
  br label %73

73:                                               ; preds = %84, %69
  %74 = load i32, ptr %11, align 4, !tbaa !29
  %75 = load ptr, ptr %9, align 8, !tbaa !94
  %76 = load i32, ptr %75, align 4, !tbaa !29
  %77 = icmp slt i32 %74, %76
  br i1 %77, label %78, label %82

78:                                               ; preds = %73
  %79 = load i32, ptr %12, align 4, !tbaa !29
  %80 = load i32, ptr %14, align 4, !tbaa !29
  %81 = icmp slt i32 %79, %80
  br label %82

82:                                               ; preds = %78, %73
  %83 = phi i1 [ false, %73 ], [ %81, %78 ]
  br i1 %83, label %84, label %95

84:                                               ; preds = %82
  %85 = getelementptr inbounds nuw %"class.icu_77::RuleBasedTimeZone", ptr %15, i32 0, i32 3
  %86 = load ptr, ptr %85, align 8, !tbaa !23
  %87 = load i32, ptr %12, align 4, !tbaa !29
  %88 = add nsw i32 %87, 1
  store i32 %88, ptr %12, align 4, !tbaa !29
  %89 = call noundef ptr @_ZNK6icu_777UVector9elementAtEi(ptr noundef nonnull align 8 dereferenceable(40) %86, i32 noundef %87)
  %90 = load ptr, ptr %8, align 8, !tbaa !101
  %91 = load i32, ptr %11, align 4, !tbaa !29
  %92 = add nsw i32 %91, 1
  store i32 %92, ptr %11, align 4, !tbaa !29
  %93 = sext i32 %91 to i64
  %94 = getelementptr inbounds ptr, ptr %90, i64 %93
  store ptr %89, ptr %94, align 8, !tbaa !34
  br label %73, !llvm.loop !111

95:                                               ; preds = %82
  call void @llvm.lifetime.end.p0(i64 4, ptr %14) #12
  br label %96

96:                                               ; preds = %95, %64, %60
  %97 = load i32, ptr %11, align 4, !tbaa !29
  %98 = load ptr, ptr %9, align 8, !tbaa !94
  store i32 %97, ptr %98, align 4, !tbaa !29
  call void @llvm.lifetime.end.p0(i64 4, ptr %12) #12
  call void @llvm.lifetime.end.p0(i64 4, ptr %11) #12
  br label %99

99:                                               ; preds = %96, %20
  ret void
}