; Function Attrs: mustprogress uwtable
define void @_ZNK6icu_7717RuleBasedTimeZone16getTimeZoneRulesERPKNS_19InitialTimeZoneRuleEPPKNS_12TimeZoneRuleERiR10UErrorCode(ptr noundef nonnull readonly align 8 captures(none) dereferenceable(105) %0, ptr noundef nonnull writeonly align 8 captures(none) dereferenceable(8) %1, ptr noundef writeonly captures(none) %2, ptr noundef nonnull align 4 captures(none) dereferenceable(4) %3, ptr noundef nonnull readonly align 4 captures(none) dereferenceable(4) %4) unnamed_addr #1 align 2 {
  %6 = load i32, ptr %4, align 4, !tbaa !21
  %7 = icmp slt i32 %6, 1
  br i1 %7, label %8, label %45

8:                                                ; preds = %5
  %9 = getelementptr inbounds nuw i8, ptr %0, i64 72
  %10 = load ptr, ptr %9, align 8, !tbaa !6
  store ptr %10, ptr %1, align 8, !tbaa !54
  %11 = getelementptr inbounds nuw i8, ptr %0, i64 80
  %12 = load ptr, ptr %11, align 8, !tbaa !19
  %.not26 = icmp ne ptr %12, null
  %13 = load i32, ptr %3, align 4
  %14 = icmp sgt i32 %13, 0
  %or.cond = select i1 %.not26, i1 %14, i1 false
  br i1 %or.cond, label %15, label %.loopexit31

15:                                               ; preds = %8
  %16 = getelementptr inbounds nuw i8, ptr %12, i64 8
  %17 = load i32, ptr %16, align 8, !tbaa !23
  %18 = icmp sgt i32 %17, 0
  br i1 %18, label %.lr.ph, label %.loopexit31

.lr.ph:                                           ; preds = %15, %.lr.ph
  %indvars.iv = phi i64 [ %indvars.iv.next, %.lr.ph ], [ 0, %15 ]
  %indvars41 = trunc i64 %indvars.iv to i32
  %19 = load ptr, ptr %11, align 8, !tbaa !19
  %indvars.iv.next = add nuw nsw i64 %indvars.iv, 1
  %indvars40 = trunc i64 %indvars.iv.next to i32
  %20 = tail call noundef ptr @_ZNK6icu_777UVector9elementAtEi(ptr noundef nonnull align 8 dereferenceable(40) %19, i32 noundef %indvars41)
  %21 = getelementptr inbounds nuw ptr, ptr %2, i64 %indvars.iv
  store ptr %20, ptr %21, align 8, !tbaa !51
  %22 = load i32, ptr %3, align 4, !tbaa !48
  %23 = sext i32 %22 to i64
  %24 = icmp slt i64 %indvars.iv.next, %23
  %25 = icmp sgt i32 %17, %indvars40
  %26 = and i1 %24, %25
  br i1 %26, label %.lr.ph, label %.loopexit31, !llvm.loop !55

.loopexit31:                                      ; preds = %.lr.ph, %15, %8
  %27 = phi i32 [ %13, %8 ], [ %13, %15 ], [ %22, %.lr.ph ]
  %.0 = phi i32 [ 0, %8 ], [ 0, %15 ], [ %indvars40, %.lr.ph ]
  %28 = getelementptr inbounds nuw i8, ptr %0, i64 88
  %29 = load ptr, ptr %28, align 8, !tbaa !20
  %.not27 = icmp ne ptr %29, null
  %30 = icmp slt i32 %.0, %27
  %or.cond30 = select i1 %.not27, i1 %30, i1 false
  br i1 %or.cond30, label %31, label %.loopexit

31:                                               ; preds = %.loopexit31
  %32 = getelementptr inbounds nuw i8, ptr %29, i64 8
  %33 = load i32, ptr %32, align 8, !tbaa !23
  %34 = icmp sgt i32 %33, 0
  br i1 %34, label %.lr.ph36.preheader, label %.loopexit

.lr.ph36.preheader:                               ; preds = %31
  %35 = zext nneg i32 %.0 to i64
  br label %.lr.ph36

.lr.ph36:                                         ; preds = %.lr.ph36.preheader, %.lr.ph36
  %indvars.iv42 = phi i64 [ %35, %.lr.ph36.preheader ], [ %indvars.iv.next43, %.lr.ph36 ]
  %.12334 = phi i32 [ 0, %.lr.ph36.preheader ], [ %37, %.lr.ph36 ]
  %36 = load ptr, ptr %28, align 8, !tbaa !20
  %37 = add nuw nsw i32 %.12334, 1
  %38 = tail call noundef ptr @_ZNK6icu_777UVector9elementAtEi(ptr noundef nonnull align 8 dereferenceable(40) %36, i32 noundef %.12334)
  %indvars.iv.next43 = add nuw nsw i64 %indvars.iv42, 1
  %39 = getelementptr inbounds nuw ptr, ptr %2, i64 %indvars.iv42
  store ptr %38, ptr %39, align 8, !tbaa !51
  %40 = load i32, ptr %3, align 4, !tbaa !48
  %41 = trunc nuw i64 %indvars.iv.next43 to i32
  %42 = icmp sgt i32 %40, %41
  %43 = icmp slt i32 %37, %33
  %44 = select i1 %42, i1 %43, i1 false
  br i1 %44, label %.lr.ph36, label %.loopexit, !llvm.loop !56

.loopexit:                                        ; preds = %.lr.ph36, %31, %.loopexit31
  %.2 = phi i32 [ %.0, %.loopexit31 ], [ %.0, %31 ], [ %41, %.lr.ph36 ]
  store i32 %.2, ptr %3, align 4, !tbaa !48
  br label %45

45:                                               ; preds = %5, %.loopexit
  ret void
}